#include <math.h>
#include <stdio.h>
#include <stdlib.h>
#include <string.h>

int n;
void main()
{
	int a;
	scanf("%d",&n);
	for(a=3;a<=n-a;a+=2){
		if(chose(a)&&chose(n-a))
			printf("%d %d\n",a,n-a);
	}
}
int chose(int n)
{
	int i;
	if(n==3)
		return 1;
	else if(n%2){
		for(i=3;i<=sqrt(n)+2;i+=2)
			if(!(n%i))
				break;
		if(i>sqrt(n))
			return 1;
		else
			return 0;
	}
	else
		return 0;
}