; ModuleID = '43/671.c'
source_filename = "43/671.c"
target datalayout = "e-m:e-p270:32:32-p271:32:32-p272:64:64-i64:64-f80:128-n8:16:32:64-S128"
target triple = "x86_64-pc-linux-gnu"

@.str = private unnamed_addr constant [3 x i8] c"%d\00", align 1
@n = common dso_local global i32 0, align 4
@.str.1 = private unnamed_addr constant [7 x i8] c"%d %d\0A\00", align 1

; Function Attrs: noinline nounwind uwtable
define dso_local void @main() #0 {
  %1 = alloca i32, align 4
  %2 = call i32 (i8*, ...) @__isoc99_scanf(i8* getelementptr inbounds ([3 x i8], [3 x i8]* @.str, i64 0, i64 0), i32* @n)
  store i32 3, i32* %1, align 4
  br label %3

3:                                                ; preds = %26, %0
  %4 = load i32, i32* %1, align 4
  %5 = load i32, i32* @n, align 4
  %6 = load i32, i32* %1, align 4
  %7 = sub nsw i32 %5, %6
  %8 = icmp sle i32 %4, %7
  br i1 %8, label %9, label %29

9:                                                ; preds = %3
  %10 = load i32, i32* %1, align 4
  %11 = call i32 @chose(i32 %10)
  %12 = icmp ne i32 %11, 0
  br i1 %12, label %13, label %25

13:                                               ; preds = %9
  %14 = load i32, i32* @n, align 4
  %15 = load i32, i32* %1, align 4
  %16 = sub nsw i32 %14, %15
  %17 = call i32 @chose(i32 %16)
  %18 = icmp ne i32 %17, 0
  br i1 %18, label %19, label %25

19:                                               ; preds = %13
  %20 = load i32, i32* %1, align 4
  %21 = load i32, i32* @n, align 4
  %22 = load i32, i32* %1, align 4
  %23 = sub nsw i32 %21, %22
  %24 = call i32 (i8*, ...) @printf(i8* getelementptr inbounds ([7 x i8], [7 x i8]* @.str.1, i64 0, i64 0), i32 %20, i32 %23)
  br label %25

25:                                               ; preds = %19, %13, %9
  br label %26

26:                                               ; preds = %25
  %27 = load i32, i32* %1, align 4
  %28 = add nsw i32 %27, 2
  store i32 %28, i32* %1, align 4
  br label %3

29:                                               ; preds = %3
  ret void
}

declare dso_local i32 @__isoc99_scanf(i8*, ...) #1

declare dso_local i32 @printf(i8*, ...) #1

; Function Attrs: noinline nounwind uwtable
define dso_local i32 @chose(i32 %0) #0 {
  %2 = alloca i32, align 4
  %3 = alloca i32, align 4
  %4 = alloca i32, align 4
  store i32 %0, i32* %3, align 4
  %5 = load i32, i32* %3, align 4
  %6 = icmp eq i32 %5, 3
  br i1 %6, label %7, label %8

7:                                                ; preds = %1
  store i32 1, i32* %2, align 4
  br label %41

8:                                                ; preds = %1
  %9 = load i32, i32* %3, align 4
  %10 = srem i32 %9, 2
  %11 = icmp ne i32 %10, 0
  br i1 %11, label %12, label %40

12:                                               ; preds = %8
  store i32 3, i32* %4, align 4
  br label %13

13:                                               ; preds = %28, %12
  %14 = load i32, i32* %4, align 4
  %15 = sitofp i32 %14 to double
  %16 = load i32, i32* %3, align 4
  %17 = sitofp i32 %16 to double
  %18 = call double @sqrt(double %17) #3
  %19 = fadd double %18, 2.000000e+00
  %20 = fcmp ole double %15, %19
  br i1 %20, label %21, label %31

21:                                               ; preds = %13
  %22 = load i32, i32* %3, align 4
  %23 = load i32, i32* %4, align 4
  %24 = srem i32 %22, %23
  %25 = icmp ne i32 %24, 0
  br i1 %25, label %27, label %26

26:                                               ; preds = %21
  br label %31

27:                                               ; preds = %21
  br label %28

28:                                               ; preds = %27
  %29 = load i32, i32* %4, align 4
  %30 = add nsw i32 %29, 2
  store i32 %30, i32* %4, align 4
  br label %13

31:                                               ; preds = %26, %13
  %32 = load i32, i32* %4, align 4
  %33 = sitofp i32 %32 to double
  %34 = load i32, i32* %3, align 4
  %35 = sitofp i32 %34 to double
  %36 = call double @sqrt(double %35) #3
  %37 = fcmp ogt double %33, %36
  br i1 %37, label %38, label %39

38:                                               ; preds = %31
  store i32 1, i32* %2, align 4
  br label %41

39:                                               ; preds = %31
  store i32 0, i32* %2, align 4
  br label %41

40:                                               ; preds = %8
  store i32 0, i32* %2, align 4
  br label %41

41:                                               ; preds = %40, %39, %38, %7
  %42 = load i32, i32* %2, align 4
  ret i32 %42
}

; Function Attrs: nounwind
declare dso_local double @sqrt(double) #2


!llvm.module.flags = !{!0}
!llvm.ident = !{!1}

!0 = !{i32 1, !"wchar_size", i32 4}
!1 = !{!"clang version 10.0.0-4ubuntu1 "}
